target datalayout = "e-m:e-p270:32:32-p271:32:32-p272:64:64-i64:64-i128:128-f80:128-n8:16:32:64-S128"
target triple = "x86_64-pc-linux-gnu"

@.str.2 = private unnamed_addr constant [100 x i8] c"generated/home/dtcxzyw/WorkSpace/Projects/compilers/llvm-opt-benchmark/bench/hdf5/hdf5/src/H5Fint.c\00", align 1
@H5E_FILE_g = external global i64, align 8
@H5E_CANTINIT_g = external global i64, align 8
@H5E_CANTCLOSEFILE_g = external global i64, align 8
@__func__.H5F__is_hdf5 = private unnamed_addr constant [13 x i8] c"H5F__is_hdf5\00", align 1
@.str.72 = private unnamed_addr constant [20 x i8] c"unable to open file\00", align 1
@H5E_NOTHDF5_g = external global i64, align 8
@.str.73 = private unnamed_addr constant [44 x i8] c"error while trying to locate file signature\00", align 1
@.str.74 = private unnamed_addr constant [21 x i8] c"unable to close file\00", align 1

; Function Attrs: nounwind uwtable
define i32 @H5F__is_hdf5(ptr noundef %0, i64 noundef %1) #0 {
  %3 = alloca ptr, align 8
  %4 = alloca i64, align 8
  %5 = alloca ptr, align 8
  %6 = alloca ptr, align 8
  %7 = alloca i64, align 8
  %8 = alloca i32, align 4
  %9 = alloca i8, align 1
  store ptr %0, ptr %3, align 8
  store i64 %1, ptr %4, align 8
  store ptr null, ptr %5, align 8
  store ptr null, ptr %6, align 8
  store i64 -1, ptr %7, align 8
  store i32 -1, ptr %8, align 4
  store i8 0, ptr %9, align 1
  %10 = load ptr, ptr %3, align 8
  %11 = load i64, ptr %4, align 8
  %12 = call ptr @H5FD_open(ptr noundef %10, i32 noundef 0, i64 noundef %11, i64 noundef -1)
  store ptr %12, ptr %5, align 8
  %13 = icmp eq ptr null, %12
  br i1 %13, label %14, label %29

14:                                               ; preds = %2
  br label %15

15:                                               ; preds = %14
  br label %16

16:                                               ; preds = %15
  br label %17

17:                                               ; preds = %16
  %18 = load i64, ptr @H5E_FILE_g, align 8
  %19 = load i64, ptr @H5E_CANTINIT_g, align 8
  %20 = call i32 (ptr, ptr, i32, i64, i64, ptr, ...) @H5E_printf_stack(ptr noundef @.str.2, ptr noundef @__func__.H5F__is_hdf5, i32 noundef 1065, i64 noundef %18, i64 noundef %19, ptr noundef @.str.72)
  br label %21

21:                                               ; preds = %17
  store i8 1, ptr %9, align 1
  %22 = load i8, ptr %9, align 1
  %23 = trunc i8 %22 to i1
  %24 = zext i1 %23 to i8
  store i8 %24, ptr %9, align 1
  br label %25

25:                                               ; preds = %21
  br label %26

26:                                               ; preds = %25
  store i32 -1, ptr %8, align 4
  br label %58

27:                                               ; No predecessors!
  br label %28

28:                                               ; preds = %27
  br label %29

29:                                               ; preds = %28, %2
  %30 = load ptr, ptr %5, align 8
  %31 = call ptr @H5F__sfile_search(ptr noundef %30)
  store ptr %31, ptr %6, align 8
  %32 = icmp ne ptr %31, null
  br i1 %32, label %33, label %34

33:                                               ; preds = %29
  store i32 1, ptr %8, align 4
  br label %57

34:                                               ; preds = %29
  %35 = load ptr, ptr %5, align 8
  %36 = call i32 @H5FD_locate_signature(ptr noundef %35, ptr noundef %7)
  %37 = icmp slt i32 %36, 0
  br i1 %37, label %38, label %53

38:                                               ; preds = %34
  br label %39

39:                                               ; preds = %38
  br label %40

40:                                               ; preds = %39
  br label %41

41:                                               ; preds = %40
  %42 = load i64, ptr @H5E_FILE_g, align 8
  %43 = load i64, ptr @H5E_NOTHDF5_g, align 8
  %44 = call i32 (ptr, ptr, i32, i64, i64, ptr, ...) @H5E_printf_stack(ptr noundef @.str.2, ptr noundef @__func__.H5F__is_hdf5, i32 noundef 1078, i64 noundef %42, i64 noundef %43, ptr noundef @.str.73)
  br label %45

45:                                               ; preds = %41
  store i8 1, ptr %9, align 1
  %46 = load i8, ptr %9, align 1
  %47 = trunc i8 %46 to i1
  %48 = zext i1 %47 to i8
  store i8 %48, ptr %9, align 1
  br label %49

49:                                               ; preds = %45
  br label %50

50:                                               ; preds = %49
  store i32 -1, ptr %8, align 4
  br label %58

51:                                               ; No predecessors!
  br label %52

52:                                               ; preds = %51
  br label %53

53:                                               ; preds = %52, %34
  %54 = load i64, ptr %7, align 8
  %55 = icmp ne i64 -1, %54
  %56 = zext i1 %55 to i32
  store i32 %56, ptr %8, align 4
  br label %57

57:                                               ; preds = %53, %33
  br label %58

58:                                               ; preds = %57, %50, %26
  %59 = load ptr, ptr %5, align 8
  %60 = icmp ne ptr %59, null
  br i1 %60, label %61, label %82

61:                                               ; preds = %58
  %62 = load ptr, ptr %5, align 8
  %63 = call i32 @H5FD_close(ptr noundef %62)
  %64 = icmp slt i32 %63, 0
  br i1 %64, label %65, label %81

65:                                               ; preds = %61
  %66 = load i32, ptr %8, align 4
  %67 = icmp eq i32 1, %66
  br i1 %67, label %68, label %81

68:                                               ; preds = %65
  br label %69

69:                                               ; preds = %68
  br label %70

70:                                               ; preds = %69
  br label %71

71:                                               ; preds = %70
  %72 = load i64, ptr @H5E_FILE_g, align 8
  %73 = load i64, ptr @H5E_CANTCLOSEFILE_g, align 8
  %74 = call i32 (ptr, ptr, i32, i64, i64, ptr, ...) @H5E_printf_stack(ptr noundef @.str.2, ptr noundef @__func__.H5F__is_hdf5, i32 noundef 1086, i64 noundef %72, i64 noundef %73, ptr noundef @.str.74)
  br label %75

75:                                               ; preds = %71
  store i8 1, ptr %9, align 1
  %76 = load i8, ptr %9, align 1
  %77 = trunc i8 %76 to i1
  %78 = zext i1 %77 to i8
  store i8 %78, ptr %9, align 1
  br label %79

79:                                               ; preds = %75
  store i32 -1, ptr %8, align 4
  br label %80

80:                                               ; preds = %79
  br label %81

81:                                               ; preds = %80, %65, %61
  br label %82

82:                                               ; preds = %81, %58
  %83 = load i32, ptr %8, align 4
  ret i32 %83
}