; Function Attrs: nounwind uwtable
define range(i32 -1, 2) i32 @H5F__is_hdf5(ptr noundef %0, i64 noundef %1) local_unnamed_addr #0 {
  %3 = alloca i64, align 8
  store i64 -1, ptr %3, align 8
  %4 = tail call ptr @H5FD_open(ptr noundef %0, i32 noundef 0, i64 noundef %1, i64 noundef -1) #22
  %5 = icmp eq ptr %4, null
  br i1 %5, label %19, label %6

6:                                                ; preds = %2
  %7 = tail call ptr @H5F__sfile_search(ptr noundef nonnull %4) #22
  %.not = icmp eq ptr %7, null
  br i1 %.not, label %8, label %23

8:                                                ; preds = %6
  %9 = call i32 @H5FD_locate_signature(ptr noundef nonnull %4, ptr noundef nonnull %3) #22
  %10 = icmp slt i32 %9, 0
  br i1 %10, label %11, label %15

11:                                               ; preds = %8
  %12 = load i64, ptr @H5E_FILE_g, align 8
  %13 = load i64, ptr @H5E_NOTHDF5_g, align 8
  %14 = call i32 (ptr, ptr, i32, i64, i64, ptr, ...) @H5E_printf_stack(ptr noundef nonnull @.str.2, ptr noundef nonnull @__func__.H5F__is_hdf5, i32 noundef 1078, i64 noundef %12, i64 noundef %13, ptr noundef nonnull @.str.73) #22
  br label %23

15:                                               ; preds = %8
  %16 = load i64, ptr %3, align 8
  %17 = icmp ne i64 %16, -1
  %18 = zext i1 %17 to i32
  br label %23

19:                                               ; preds = %2
  %20 = load i64, ptr @H5E_FILE_g, align 8
  %21 = load i64, ptr @H5E_CANTINIT_g, align 8
  %22 = tail call i32 (ptr, ptr, i32, i64, i64, ptr, ...) @H5E_printf_stack(ptr noundef nonnull @.str.2, ptr noundef nonnull @__func__.H5F__is_hdf5, i32 noundef 1065, i64 noundef %20, i64 noundef %21, ptr noundef nonnull @.str.72) #22
  br label %31

23:                                               ; preds = %6, %15, %11
  %.0.ph = phi i32 [ 1, %6 ], [ %18, %15 ], [ -1, %11 ]
  %24 = call i32 @H5FD_close(ptr noundef nonnull %4) #22
  %25 = icmp slt i32 %24, 0
  %26 = icmp eq i32 %.0.ph, 1
  %or.cond = select i1 %25, i1 %26, i1 false
  br i1 %or.cond, label %27, label %31

27:                                               ; preds = %23
  %28 = load i64, ptr @H5E_FILE_g, align 8
  %29 = load i64, ptr @H5E_CANTCLOSEFILE_g, align 8
  %30 = call i32 (ptr, ptr, i32, i64, i64, ptr, ...) @H5E_printf_stack(ptr noundef nonnull @.str.2, ptr noundef nonnull @__func__.H5F__is_hdf5, i32 noundef 1086, i64 noundef %28, i64 noundef %29, ptr noundef nonnull @.str.74) #22
  br label %31

31:                                               ; preds = %19, %23, %27
  %.1 = phi i32 [ -1, %27 ], [ %.0.ph, %23 ], [ -1, %19 ]
  ret i32 %.1
}